target datalayout = "e-m:e-p270:32:32-p271:32:32-p272:64:64-i64:64-i128:128-f80:128-n8:16:32:64-S128"
target triple = "x86_64-pc-linux-gnu"

%class.NativeCallStack = type { [4 x ptr] }
%class.MallocSiteHashtableEntry = type { %class.MallocSite, i32, ptr }
%class.MallocSite = type { %class.AllocationSite.base, %class.MemoryCounter }
%class.AllocationSite.base = type <{ %class.NativeCallStack, i8 }>
%class.MemoryCounter = type { i64, i64, i64, i64 }

@_ZN15MallocSiteTable6_tableE = hidden global ptr null, align 8

; Function Attrs: mustprogress nounwind uwtable
define linkonce_odr hidden noundef ptr @_ZNK24MallocSiteHashtableEntry4nextEv(ptr noundef nonnull align 8 dereferenceable(88) %0) #1 comdat align 2 {
  %2 = alloca ptr, align 8
  store ptr %0, ptr %2, align 8
  %3 = load ptr, ptr %2, align 8
  %4 = getelementptr inbounds %class.MallocSiteHashtableEntry, ptr %3, i32 0, i32 2
  %5 = load volatile ptr, ptr %4, align 8
  ret ptr %5
}

; Function Attrs: mustprogress nounwind uwtable
define linkonce_odr hidden noundef ptr @_ZNK24MallocSiteHashtableEntry4peekEv(ptr noundef nonnull align 8 dereferenceable(88) %0) #1 comdat align 2 {
  %2 = alloca ptr, align 8
  store ptr %0, ptr %2, align 8
  %3 = load ptr, ptr %2, align 8
  %4 = getelementptr inbounds %class.MallocSiteHashtableEntry, ptr %3, i32 0, i32 0
  ret ptr %4
}

; Function Attrs: mustprogress nounwind uwtable
define hidden noundef zeroext i1 @_ZN15MallocSiteTable4walkEP16MallocSiteWalker(ptr noundef %0) #1 align 2 {
  %2 = alloca i1, align 1
  %3 = alloca ptr, align 8
  %4 = alloca ptr, align 8
  %5 = alloca i32, align 4
  store ptr %0, ptr %3, align 8
  store i32 0, ptr %5, align 4
  br label %6

6:                                                ; preds = %31, %1
  %7 = load i32, ptr %5, align 4
  %8 = icmp slt i32 %7, 4099
  br i1 %8, label %9, label %34

9:                                                ; preds = %6
  %10 = load ptr, ptr @_ZN15MallocSiteTable6_tableE, align 8
  %11 = load i32, ptr %5, align 4
  %12 = sext i32 %11 to i64
  %13 = getelementptr inbounds ptr, ptr %10, i64 %12
  %14 = load ptr, ptr %13, align 8
  store ptr %14, ptr %4, align 8
  br label %15

15:                                               ; preds = %27, %9
  %16 = load ptr, ptr %4, align 8
  %17 = icmp ne ptr %16, null
  br i1 %17, label %18, label %30

18:                                               ; preds = %15
  %19 = load ptr, ptr %3, align 8
  %20 = load ptr, ptr %4, align 8
  %21 = call noundef ptr @_ZNK24MallocSiteHashtableEntry4peekEv(ptr noundef nonnull align 8 dereferenceable(88) %20)
  %22 = load ptr, ptr %19, align 8
  %23 = getelementptr inbounds ptr, ptr %22, i64 0
  %24 = load ptr, ptr %23, align 8
  %25 = call noundef zeroext i1 %24(ptr noundef nonnull align 8 dereferenceable(8) %19, ptr noundef %21)
  br i1 %25, label %27, label %26

26:                                               ; preds = %18
  store i1 false, ptr %2, align 1
  br label %35

27:                                               ; preds = %18
  %28 = load ptr, ptr %4, align 8
  %29 = call noundef ptr @_ZNK24MallocSiteHashtableEntry4nextEv(ptr noundef nonnull align 8 dereferenceable(88) %28)
  store ptr %29, ptr %4, align 8
  br label %15, !llvm.loop !9

30:                                               ; preds = %15
  br label %31

31:                                               ; preds = %30
  %32 = load i32, ptr %5, align 4
  %33 = add nsw i32 %32, 1
  store i32 %33, ptr %5, align 4
  br label %6, !llvm.loop !10

34:                                               ; preds = %6
  store i1 true, ptr %2, align 1
  br label %35

35:                                               ; preds = %34, %26
  %36 = load i1, ptr %2, align 1
  ret i1 %36
}

; Function Attrs: mustprogress nounwind uwtable
define hidden noundef zeroext i1 @_ZN15MallocSiteTable16walk_malloc_siteEP16MallocSiteWalker(ptr noundef %0) #1 align 2 {
  %2 = alloca ptr, align 8
  store ptr %0, ptr %2, align 8
  %3 = load ptr, ptr %2, align 8
  %4 = call noundef zeroext i1 @_ZN15MallocSiteTable4walkEP16MallocSiteWalker(ptr noundef %3)
  ret i1 %4
}